target datalayout = "e-m:e-p270:32:32-p271:32:32-p272:64:64-i64:64-i128:128-f80:128-n8:16:32:64-S128"
target triple = "x86_64-pc-linux-gnu"

%"class.llvm::StringRef" = type { ptr, i64 }
%"class.llvm::SmallVectorBase" = type { ptr, i32, i32 }
%"struct.llvm::omp::GV" = type { i32, i32, i32, i32, i32, i32, i32 }
%"class.llvm::OpenMPIRBuilderConfig" = type { %"class.std::optional", %"class.std::optional", %"class.std::optional", %"class.std::optional", %"class.std::optional.29", %"class.std::optional.29", %"class.std::optional.35", %"class.llvm::SmallVector.43", i64 }
%"class.std::optional" = type { %"struct.std::_Optional_base" }
%"struct.std::_Optional_base" = type { %"struct.std::_Optional_payload" }
%"struct.std::_Optional_payload" = type { %"struct.std::_Optional_payload_base" }
%"struct.std::_Optional_payload_base" = type { %"union.std::_Optional_payload_base<bool>::_Storage", i8 }
%"union.std::_Optional_payload_base<bool>::_Storage" = type { %"struct.std::_Optional_payload_base<bool>::_Empty_byte" }
%"struct.std::_Optional_payload_base<bool>::_Empty_byte" = type { i8 }
%"class.std::optional.29" = type { %"struct.std::_Optional_base.30" }
%"struct.std::_Optional_base.30" = type { %"struct.std::_Optional_payload.32" }
%"struct.std::_Optional_payload.32" = type { %"struct.std::_Optional_payload_base.base", [7 x i8] }
%"struct.std::_Optional_payload_base.base" = type <{ %"union.std::_Optional_payload_base<llvm::StringRef>::_Storage", i8 }>
%"union.std::_Optional_payload_base<llvm::StringRef>::_Storage" = type { %"class.llvm::StringRef" }
%"class.std::optional.35" = type { %"struct.std::_Optional_base.36" }
%"struct.std::_Optional_base.36" = type { %"struct.std::_Optional_payload.38" }
%"struct.std::_Optional_payload.38" = type { %"struct.std::_Optional_payload_base.base.40", [3 x i8] }
%"struct.std::_Optional_payload_base.base.40" = type <{ %"union.std::_Optional_payload_base<llvm::omp::GV>::_Storage", i8 }>
%"union.std::_Optional_payload_base<llvm::omp::GV>::_Storage" = type { %"struct.llvm::omp::GV" }
%"class.llvm::SmallVector.43" = type { %"class.llvm::SmallVectorImpl.44", %"struct.llvm::SmallVectorStorage.47" }
%"class.llvm::SmallVectorImpl.44" = type { %"class.llvm::SmallVectorTemplateBase.45" }
%"class.llvm::SmallVectorTemplateBase.45" = type { %"class.llvm::SmallVectorTemplateCommon.46" }
%"class.llvm::SmallVectorTemplateCommon.46" = type { %"class.llvm::SmallVectorBase" }
%"struct.llvm::SmallVectorStorage.47" = type { [56 x i8] }
%"struct.std::_Optional_payload_base.33" = type <{ %"union.std::_Optional_payload_base<llvm::StringRef>::_Storage", i8, [7 x i8] }>
%"struct.std::_Optional_payload_base.39" = type <{ %"union.std::_Optional_payload_base<llvm::omp::GV>::_Storage", i8, [3 x i8] }>

; Function Attrs: mustprogress nounwind uwtable
define linkonce_odr hidden noundef ptr @_ZNK4llvm25SmallVectorTemplateCommonINS_6TripleEvE10getFirstElEv(ptr noundef nonnull align 8 dereferenceable(16) %0) #1 comdat align 2 {
  %2 = alloca ptr, align 8
  store ptr %0, ptr %2, align 8
  %3 = load ptr, ptr %2, align 8
  %4 = getelementptr inbounds i8, ptr %3, i64 16
  ret ptr %4
}

; Function Attrs: mustprogress nounwind uwtable
define linkonce_odr hidden void @_ZNSt22_Optional_payload_baseIN4llvm3omp2GVEE8_StorageIS2_Lb1EEC2Ev(ptr noundef nonnull align 4 dereferenceable(28) %0) unnamed_addr #1 comdat align 2 {
  %2 = alloca ptr, align 8
  store ptr %0, ptr %2, align 8
  ret void
}

; Function Attrs: mustprogress nounwind uwtable
define linkonce_odr hidden void @_ZNSt22_Optional_payload_baseIN4llvm9StringRefEE8_StorageIS1_Lb1EEC2Ev(ptr noundef nonnull align 8 dereferenceable(16) %0) unnamed_addr #1 comdat align 2 {
  %2 = alloca ptr, align 8
  store ptr %0, ptr %2, align 8
  ret void
}

; Function Attrs: mustprogress nounwind uwtable
define linkonce_odr hidden void @_ZNSt22_Optional_payload_baseIbE8_StorageIbLb1EEC2Ev(ptr noundef nonnull align 1 dereferenceable(1) %0) unnamed_addr #1 comdat align 2 {
  %2 = alloca ptr, align 8
  store ptr %0, ptr %2, align 8
  ret void
}

; Function Attrs: mustprogress nounwind uwtable
define linkonce_odr hidden void @_ZNSt22_Optional_payload_baseIbE8_StorageIbLb1EEC2IJRbEEESt10in_place_tDpOT_(ptr noundef nonnull align 1 dereferenceable(1) %0, ptr noundef nonnull align 1 dereferenceable(1) %1) unnamed_addr #1 comdat align 2 {
  %3 = alloca ptr, align 8
  %4 = alloca ptr, align 8
  store ptr %0, ptr %3, align 8
  store ptr %1, ptr %4, align 8
  %5 = load ptr, ptr %3, align 8
  %6 = load ptr, ptr %4, align 8
  %7 = load i8, ptr %6, align 1
  %8 = trunc i8 %7 to i1
  %9 = zext i1 %8 to i8
  store i8 %9, ptr %5, align 1
  ret void
}

; Function Attrs: mustprogress nounwind uwtable
define linkonce_odr hidden void @_ZN4llvm25SmallVectorTemplateCommonINS_6TripleEvEC2Em(ptr noundef nonnull align 8 dereferenceable(16) %0, i64 noundef %1) unnamed_addr #1 comdat align 2 {
  %3 = alloca ptr, align 8
  %4 = alloca i64, align 8
  store ptr %0, ptr %3, align 8
  store i64 %1, ptr %4, align 8
  %5 = load ptr, ptr %3, align 8
  %6 = call noundef ptr @_ZNK4llvm25SmallVectorTemplateCommonINS_6TripleEvE10getFirstElEv(ptr noundef nonnull align 8 dereferenceable(16) %5)
  %7 = load i64, ptr %4, align 8
  call void @_ZN4llvm15SmallVectorBaseIjEC2EPvm(ptr noundef nonnull align 8 dereferenceable(16) %5, ptr noundef %6, i64 noundef %7)
  ret void
}

; Function Attrs: mustprogress nounwind uwtable
define linkonce_odr hidden void @_ZNSt22_Optional_payload_baseIN4llvm3omp2GVEEC2Ev(ptr noundef nonnull align 4 dereferenceable(29) %0) unnamed_addr #1 comdat align 2 {
  %2 = alloca ptr, align 8
  store ptr %0, ptr %2, align 8
  %3 = load ptr, ptr %2, align 8
  %4 = getelementptr inbounds nuw %"struct.std::_Optional_payload_base.39", ptr %3, i32 0, i32 0
  call void @_ZNSt22_Optional_payload_baseIN4llvm3omp2GVEE8_StorageIS2_Lb1EEC2Ev(ptr noundef nonnull align 4 dereferenceable(28) %4) #2
  %5 = getelementptr inbounds nuw %"struct.std::_Optional_payload_base.39", ptr %3, i32 0, i32 1
  store i8 0, ptr %5, align 4
  ret void
}

; Function Attrs: mustprogress nounwind uwtable
define linkonce_odr hidden void @_ZNSt22_Optional_payload_baseIN4llvm9StringRefEEC2Ev(ptr noundef nonnull align 8 dereferenceable(17) %0) unnamed_addr #1 comdat align 2 {
  %2 = alloca ptr, align 8
  store ptr %0, ptr %2, align 8
  %3 = load ptr, ptr %2, align 8
  %4 = getelementptr inbounds nuw %"struct.std::_Optional_payload_base.33", ptr %3, i32 0, i32 0
  call void @_ZNSt22_Optional_payload_baseIN4llvm9StringRefEE8_StorageIS1_Lb1EEC2Ev(ptr noundef nonnull align 8 dereferenceable(16) %4) #2
  %5 = getelementptr inbounds nuw %"struct.std::_Optional_payload_base.33", ptr %3, i32 0, i32 1
  store i8 0, ptr %5, align 8
  ret void
}

; Function Attrs: mustprogress nounwind uwtable
define linkonce_odr hidden void @_ZNSt22_Optional_payload_baseIbEC2Ev(ptr noundef nonnull align 1 dereferenceable(2) %0) unnamed_addr #1 comdat align 2 {
  %2 = alloca ptr, align 8
  store ptr %0, ptr %2, align 8
  %3 = load ptr, ptr %2, align 8
  %4 = getelementptr inbounds nuw %"struct.std::_Optional_payload_base", ptr %3, i32 0, i32 0
  call void @_ZNSt22_Optional_payload_baseIbE8_StorageIbLb1EEC2Ev(ptr noundef nonnull align 1 dereferenceable(1) %4) #2
  %5 = getelementptr inbounds nuw %"struct.std::_Optional_payload_base", ptr %3, i32 0, i32 1
  store i8 0, ptr %5, align 1
  ret void
}

; Function Attrs: mustprogress nounwind uwtable
define linkonce_odr hidden void @_ZNSt22_Optional_payload_baseIbEC2IJRbEEESt10in_place_tDpOT_(ptr noundef nonnull align 1 dereferenceable(2) %0, ptr noundef nonnull align 1 dereferenceable(1) %1) unnamed_addr #1 comdat align 2 {
  %3 = alloca ptr, align 8
  %4 = alloca ptr, align 8
  store ptr %0, ptr %3, align 8
  store ptr %1, ptr %4, align 8
  %5 = load ptr, ptr %3, align 8
  %6 = getelementptr inbounds nuw %"struct.std::_Optional_payload_base", ptr %5, i32 0, i32 0
  %7 = load ptr, ptr %4, align 8
  call void @_ZNSt22_Optional_payload_baseIbE8_StorageIbLb1EEC2IJRbEEESt10in_place_tDpOT_(ptr noundef nonnull align 1 dereferenceable(1) %6, ptr noundef nonnull align 1 dereferenceable(1) %7)
  %8 = getelementptr inbounds nuw %"struct.std::_Optional_payload_base", ptr %5, i32 0, i32 1
  store i8 1, ptr %8, align 1
  ret void
}

; Function Attrs: mustprogress nounwind uwtable
define linkonce_odr hidden void @_ZN4llvm23SmallVectorTemplateBaseINS_6TripleELb0EEC2Em(ptr noundef nonnull align 8 dereferenceable(16) %0, i64 noundef %1) unnamed_addr #1 comdat align 2 {
  %3 = alloca ptr, align 8
  %4 = alloca i64, align 8
  store ptr %0, ptr %3, align 8
  store i64 %1, ptr %4, align 8
  %5 = load ptr, ptr %3, align 8
  %6 = load i64, ptr %4, align 8
  call void @_ZN4llvm25SmallVectorTemplateCommonINS_6TripleEvEC2Em(ptr noundef nonnull align 8 dereferenceable(16) %5, i64 noundef %6)
  ret void
}

; Function Attrs: mustprogress nounwind uwtable
define linkonce_odr hidden void @_ZNSt17_Optional_payloadIN4llvm3omp2GVELb1ELb1ELb1EEC2Ev(ptr noundef nonnull align 4 dereferenceable(29) %0) unnamed_addr #1 comdat align 2 {
  %2 = alloca ptr, align 8
  store ptr %0, ptr %2, align 8
  %3 = load ptr, ptr %2, align 8
  call void @_ZNSt22_Optional_payload_baseIN4llvm3omp2GVEEC2Ev(ptr noundef nonnull align 4 dereferenceable(29) %3) #2
  ret void
}

; Function Attrs: mustprogress nounwind uwtable
define linkonce_odr hidden void @_ZNSt17_Optional_payloadIN4llvm9StringRefELb1ELb1ELb1EEC2Ev(ptr noundef nonnull align 8 dereferenceable(17) %0) unnamed_addr #1 comdat align 2 {
  %2 = alloca ptr, align 8
  store ptr %0, ptr %2, align 8
  %3 = load ptr, ptr %2, align 8
  call void @_ZNSt22_Optional_payload_baseIN4llvm9StringRefEEC2Ev(ptr noundef nonnull align 8 dereferenceable(17) %3) #2
  ret void
}

; Function Attrs: mustprogress nounwind uwtable
define linkonce_odr hidden void @_ZNSt17_Optional_payloadIbLb1ELb1ELb1EEC2Ev(ptr noundef nonnull align 1 dereferenceable(2) %0) unnamed_addr #1 comdat align 2 {
  %2 = alloca ptr, align 8
  store ptr %0, ptr %2, align 8
  %3 = load ptr, ptr %2, align 8
  call void @_ZNSt22_Optional_payload_baseIbEC2Ev(ptr noundef nonnull align 1 dereferenceable(2) %3) #2
  ret void
}

; Function Attrs: mustprogress nounwind uwtable
define linkonce_odr hidden void @_ZNSt17_Optional_payloadIbLb1ELb1ELb1EECI2St22_Optional_payload_baseIbEIJRbEEESt10in_place_tDpOT_(ptr noundef nonnull align 1 dereferenceable(2) %0, ptr noundef nonnull align 1 dereferenceable(1) %1) unnamed_addr #1 comdat align 2 {
  %3 = alloca ptr, align 8
  %4 = alloca ptr, align 8
  store ptr %0, ptr %3, align 8
  store ptr %1, ptr %4, align 8
  %5 = load ptr, ptr %3, align 8
  %6 = load ptr, ptr %4, align 8
  call void @_ZNSt22_Optional_payload_baseIbEC2IJRbEEESt10in_place_tDpOT_(ptr noundef nonnull align 1 dereferenceable(2) %5, ptr noundef nonnull align 1 dereferenceable(1) %6)
  ret void
}

; Function Attrs: mustprogress nounwind uwtable
define linkonce_odr hidden void @_ZN4llvm15SmallVectorImplINS_6TripleEEC2Ej(ptr noundef nonnull align 8 dereferenceable(16) %0, i32 noundef %1) unnamed_addr #1 comdat align 2 {
  %3 = alloca ptr, align 8
  %4 = alloca i32, align 4
  store ptr %0, ptr %3, align 8
  store i32 %1, ptr %4, align 4
  %5 = load ptr, ptr %3, align 8
  %6 = load i32, ptr %4, align 4
  %7 = zext i32 %6 to i64
  call void @_ZN4llvm23SmallVectorTemplateBaseINS_6TripleELb0EEC2Em(ptr noundef nonnull align 8 dereferenceable(16) %5, i64 noundef %7)
  ret void
}

; Function Attrs: mustprogress nounwind uwtable
define linkonce_odr hidden void @_ZNSt14_Optional_baseIN4llvm3omp2GVELb1ELb1EEC2Ev(ptr noundef nonnull align 4 dereferenceable(32) %0) unnamed_addr #1 comdat align 2 {
  %2 = alloca ptr, align 8
  store ptr %0, ptr %2, align 8
  %3 = load ptr, ptr %2, align 8
  %4 = getelementptr inbounds nuw %"struct.std::_Optional_base.36", ptr %3, i32 0, i32 0
  call void @_ZNSt17_Optional_payloadIN4llvm3omp2GVELb1ELb1ELb1EEC2Ev(ptr noundef nonnull align 4 dereferenceable(29) %4) #2
  ret void
}

; Function Attrs: mustprogress nounwind uwtable
define linkonce_odr hidden void @_ZNSt14_Optional_baseIN4llvm9StringRefELb1ELb1EEC2Ev(ptr noundef nonnull align 8 dereferenceable(24) %0) unnamed_addr #1 comdat align 2 {
  %2 = alloca ptr, align 8
  store ptr %0, ptr %2, align 8
  %3 = load ptr, ptr %2, align 8
  %4 = getelementptr inbounds nuw %"struct.std::_Optional_base.30", ptr %3, i32 0, i32 0
  call void @_ZNSt17_Optional_payloadIN4llvm9StringRefELb1ELb1ELb1EEC2Ev(ptr noundef nonnull align 8 dereferenceable(17) %4) #2
  ret void
}

; Function Attrs: mustprogress nounwind uwtable
define linkonce_odr hidden void @_ZNSt14_Optional_baseIbLb1ELb1EEC2Ev(ptr noundef nonnull align 1 dereferenceable(2) %0) unnamed_addr #1 comdat align 2 {
  %2 = alloca ptr, align 8
  store ptr %0, ptr %2, align 8
  %3 = load ptr, ptr %2, align 8
  %4 = getelementptr inbounds nuw %"struct.std::_Optional_base", ptr %3, i32 0, i32 0
  call void @_ZNSt17_Optional_payloadIbLb1ELb1ELb1EEC2Ev(ptr noundef nonnull align 1 dereferenceable(2) %4) #2
  ret void
}

; Function Attrs: mustprogress nounwind uwtable
define linkonce_odr hidden void @_ZNSt14_Optional_baseIbLb1ELb1EEC2IJRbETnNSt9enable_ifIX18is_constructible_vIbDpT_EEbE4typeELb0EEESt10in_place_tDpOS4_(ptr noundef nonnull align 1 dereferenceable(2) %0, ptr noundef nonnull align 1 dereferenceable(1) %1) unnamed_addr #1 comdat align 2 {
  %3 = alloca ptr, align 8
  %4 = alloca ptr, align 8
  store ptr %0, ptr %3, align 8
  store ptr %1, ptr %4, align 8
  %5 = load ptr, ptr %3, align 8
  %6 = getelementptr inbounds nuw %"struct.std::_Optional_base", ptr %5, i32 0, i32 0
  %7 = load ptr, ptr %4, align 8
  call void @_ZNSt17_Optional_payloadIbLb1ELb1ELb1EECI2St22_Optional_payload_baseIbEIJRbEEESt10in_place_tDpOT_(ptr noundef nonnull align 1 dereferenceable(2) %6, ptr noundef nonnull align 1 dereferenceable(1) %7)
  ret void
}

; Function Attrs: mustprogress nounwind uwtable
define linkonce_odr hidden void @_ZN4llvm11SmallVectorINS_6TripleELj1EEC2Ev(ptr noundef nonnull align 8 dereferenceable(72) %0) unnamed_addr #1 comdat align 2 {
  %2 = alloca ptr, align 8
  store ptr %0, ptr %2, align 8
  %3 = load ptr, ptr %2, align 8
  call void @_ZN4llvm15SmallVectorImplINS_6TripleEEC2Ej(ptr noundef nonnull align 8 dereferenceable(16) %3, i32 noundef 1)
  ret void
}

; Function Attrs: mustprogress nounwind uwtable
define linkonce_odr hidden void @_ZNSt8optionalIN4llvm3omp2GVEEC2Ev(ptr noundef nonnull align 4 dereferenceable(32) %0) unnamed_addr #1 comdat align 2 {
  %2 = alloca ptr, align 8
  store ptr %0, ptr %2, align 8
  %3 = load ptr, ptr %2, align 8
  call void @_ZNSt14_Optional_baseIN4llvm3omp2GVELb1ELb1EEC2Ev(ptr noundef nonnull align 4 dereferenceable(32) %3) #2
  ret void
}

; Function Attrs: mustprogress nounwind uwtable
define linkonce_odr hidden void @_ZNSt8optionalIN4llvm9StringRefEEC2Ev(ptr noundef nonnull align 8 dereferenceable(24) %0) unnamed_addr #1 comdat align 2 {
  %2 = alloca ptr, align 8
  store ptr %0, ptr %2, align 8
  %3 = load ptr, ptr %2, align 8
  call void @_ZNSt14_Optional_baseIN4llvm9StringRefELb1ELb1EEC2Ev(ptr noundef nonnull align 8 dereferenceable(24) %3) #2
  ret void
}

; Function Attrs: mustprogress nounwind uwtable
define linkonce_odr hidden void @_ZNSt8optionalIbEC2Ev(ptr noundef nonnull align 1 dereferenceable(2) %0) unnamed_addr #1 comdat align 2 {
  %2 = alloca ptr, align 8
  store ptr %0, ptr %2, align 8
  %3 = load ptr, ptr %2, align 8
  call void @_ZNSt14_Optional_baseIbLb1ELb1EEC2Ev(ptr noundef nonnull align 1 dereferenceable(2) %3) #2
  ret void
}

; Function Attrs: mustprogress nounwind uwtable
define linkonce_odr hidden void @_ZNSt8optionalIbEC2IRbTnNSt9enable_ifIX7__and_vISt6__not_ISt7is_sameIS0_NSt9remove_cvINSt16remove_referenceIT_E4typeEE4typeEEES4_IS5_ISt10in_place_tSC_EESt16is_constructibleIbJS8_EESt14is_convertibleIS8_bEEEbE4typeELb1EEEOS8_(ptr noundef nonnull align 1 dereferenceable(2) %0, ptr noundef nonnull align 1 dereferenceable(1) %1) unnamed_addr #1 comdat align 2 {
  %3 = alloca ptr, align 8
  %4 = alloca ptr, align 8
  store ptr %0, ptr %3, align 8
  store ptr %1, ptr %4, align 8
  %5 = load ptr, ptr %3, align 8
  %6 = load ptr, ptr %4, align 8
  call void @_ZNSt14_Optional_baseIbLb1ELb1EEC2IJRbETnNSt9enable_ifIX18is_constructible_vIbDpT_EEbE4typeELb0EEESt10in_place_tDpOS4_(ptr noundef nonnull align 1 dereferenceable(2) %5, ptr noundef nonnull align 1 dereferenceable(1) %6)
  ret void
}

; Function Attrs: mustprogress nounwind uwtable
define dso_local void @_ZN4llvm21OpenMPIRBuilderConfigC2Ebbbbbbb(ptr noundef nonnull align 8 dereferenceable(168) %0, i1 noundef zeroext %1, i1 noundef zeroext %2, i1 noundef zeroext %3, i1 noundef zeroext %4, i1 noundef zeroext %5, i1 noundef zeroext %6, i1 noundef zeroext %7) unnamed_addr #1 align 2 {
  %9 = alloca ptr, align 8
  %10 = alloca i8, align 1
  %11 = alloca i8, align 1
  %12 = alloca i8, align 1
  %13 = alloca i8, align 1
  %14 = alloca i8, align 1
  %15 = alloca i8, align 1
  %16 = alloca i8, align 1
  store ptr %0, ptr %9, align 8
  %17 = zext i1 %1 to i8
  store i8 %17, ptr %10, align 1
  %18 = zext i1 %2 to i8
  store i8 %18, ptr %11, align 1
  %19 = zext i1 %3 to i8
  store i8 %19, ptr %12, align 1
  %20 = zext i1 %4 to i8
  store i8 %20, ptr %13, align 1
  %21 = zext i1 %5 to i8
  store i8 %21, ptr %14, align 1
  %22 = zext i1 %6 to i8
  store i8 %22, ptr %15, align 1
  %23 = zext i1 %7 to i8
  store i8 %23, ptr %16, align 1
  %24 = load ptr, ptr %9, align 8
  %25 = getelementptr inbounds nuw %"class.llvm::OpenMPIRBuilderConfig", ptr %24, i32 0, i32 0
  call void @_ZNSt8optionalIbEC2IRbTnNSt9enable_ifIX7__and_vISt6__not_ISt7is_sameIS0_NSt9remove_cvINSt16remove_referenceIT_E4typeEE4typeEEES4_IS5_ISt10in_place_tSC_EESt16is_constructibleIbJS8_EESt14is_convertibleIS8_bEEEbE4typeELb1EEEOS8_(ptr noundef nonnull align 1 dereferenceable(2) %25, ptr noundef nonnull align 1 dereferenceable(1) %10) #2
  %26 = getelementptr inbounds nuw %"class.llvm::OpenMPIRBuilderConfig", ptr %24, i32 0, i32 1
  call void @_ZNSt8optionalIbEC2IRbTnNSt9enable_ifIX7__and_vISt6__not_ISt7is_sameIS0_NSt9remove_cvINSt16remove_referenceIT_E4typeEE4typeEEES4_IS5_ISt10in_place_tSC_EESt16is_constructibleIbJS8_EESt14is_convertibleIS8_bEEEbE4typeELb1EEEOS8_(ptr noundef nonnull align 1 dereferenceable(2) %26, ptr noundef nonnull align 1 dereferenceable(1) %11) #2
  %27 = getelementptr inbounds nuw %"class.llvm::OpenMPIRBuilderConfig", ptr %24, i32 0, i32 2
  call void @_ZNSt8optionalIbEC2Ev(ptr noundef nonnull align 1 dereferenceable(2) %27) #2
  %28 = getelementptr inbounds nuw %"class.llvm::OpenMPIRBuilderConfig", ptr %24, i32 0, i32 3
  call void @_ZNSt8optionalIbEC2IRbTnNSt9enable_ifIX7__and_vISt6__not_ISt7is_sameIS0_NSt9remove_cvINSt16remove_referenceIT_E4typeEE4typeEEES4_IS5_ISt10in_place_tSC_EESt16is_constructibleIbJS8_EESt14is_convertibleIS8_bEEEbE4typeELb1EEEOS8_(ptr noundef nonnull align 1 dereferenceable(2) %28, ptr noundef nonnull align 1 dereferenceable(1) %12) #2
  %29 = getelementptr inbounds nuw %"class.llvm::OpenMPIRBuilderConfig", ptr %24, i32 0, i32 4
  call void @_ZNSt8optionalIN4llvm9StringRefEEC2Ev(ptr noundef nonnull align 8 dereferenceable(24) %29) #2
  %30 = getelementptr inbounds nuw %"class.llvm::OpenMPIRBuilderConfig", ptr %24, i32 0, i32 5
  call void @_ZNSt8optionalIN4llvm9StringRefEEC2Ev(ptr noundef nonnull align 8 dereferenceable(24) %30) #2
  %31 = getelementptr inbounds nuw %"class.llvm::OpenMPIRBuilderConfig", ptr %24, i32 0, i32 6
  call void @_ZNSt8optionalIN4llvm3omp2GVEEC2Ev(ptr noundef nonnull align 4 dereferenceable(32) %31) #2
  %32 = getelementptr inbounds nuw %"class.llvm::OpenMPIRBuilderConfig", ptr %24, i32 0, i32 7
  call void @_ZN4llvm11SmallVectorINS_6TripleELj1EEC2Ev(ptr noundef nonnull align 8 dereferenceable(72) %32)
  %33 = getelementptr inbounds nuw %"class.llvm::OpenMPIRBuilderConfig", ptr %24, i32 0, i32 8
  store i64 0, ptr %33, align 8
  %34 = load i8, ptr %13, align 1
  %35 = trunc i8 %34 to i1
  br i1 %35, label %36, label %40

36:                                               ; preds = %8
  %37 = getelementptr inbounds nuw %"class.llvm::OpenMPIRBuilderConfig", ptr %24, i32 0, i32 8
  %38 = load i64, ptr %37, align 8
  %39 = or i64 %38, 2
  store i64 %39, ptr %37, align 8
  br label %40

40:                                               ; preds = %36, %8
  %41 = load i8, ptr %14, align 1
  %42 = trunc i8 %41 to i1
  br i1 %42, label %43, label %47

43:                                               ; preds = %40
  %44 = getelementptr inbounds nuw %"class.llvm::OpenMPIRBuilderConfig", ptr %24, i32 0, i32 8
  %45 = load i64, ptr %44, align 8
  %46 = or i64 %45, 4
  store i64 %46, ptr %44, align 8
  br label %47

47:                                               ; preds = %43, %40
  %48 = load i8, ptr %15, align 1
  %49 = trunc i8 %48 to i1
  br i1 %49, label %50, label %54

50:                                               ; preds = %47
  %51 = getelementptr inbounds nuw %"class.llvm::OpenMPIRBuilderConfig", ptr %24, i32 0, i32 8
  %52 = load i64, ptr %51, align 8
  %53 = or i64 %52, 8
  store i64 %53, ptr %51, align 8
  br label %54

54:                                               ; preds = %50, %47
  %55 = load i8, ptr %16, align 1
  %56 = trunc i8 %55 to i1
  br i1 %56, label %57, label %61

57:                                               ; preds = %54
  %58 = getelementptr inbounds nuw %"class.llvm::OpenMPIRBuilderConfig", ptr %24, i32 0, i32 8
  %59 = load i64, ptr %58, align 8
  %60 = or i64 %59, 16
  store i64 %60, ptr %58, align 8
  br label %61

61:                                               ; preds = %57, %54
  ret void
}