; Function Attrs: mustprogress nounwind uwtable
define dso_local void @_ZN4llvm21OpenMPIRBuilderConfigC2Ebbbbbbb(ptr noundef nonnull align 8 dereferenceable(168) initializes((0, 4), (5, 8), (24, 25), (48, 49), (84, 85)) %0, i1 noundef zeroext %1, i1 noundef zeroext %2, i1 noundef zeroext %3, i1 noundef zeroext %4, i1 noundef zeroext %5, i1 noundef zeroext %6, i1 noundef zeroext %7) unnamed_addr #0 align 2 {
  %9 = zext i1 %1 to i8
  %10 = zext i1 %2 to i8
  %11 = zext i1 %3 to i8
  store i8 %9, ptr %0, align 8
  %12 = getelementptr inbounds nuw i8, ptr %0, i64 1
  store i8 1, ptr %12, align 1
  %13 = getelementptr inbounds nuw i8, ptr %0, i64 2
  store i8 %10, ptr %13, align 2
  %14 = getelementptr inbounds nuw i8, ptr %0, i64 3
  store i8 1, ptr %14, align 1
  %15 = getelementptr inbounds nuw i8, ptr %0, i64 5
  store i8 0, ptr %15, align 1
  %16 = getelementptr inbounds nuw i8, ptr %0, i64 6
  store i8 %11, ptr %16, align 2
  %17 = getelementptr inbounds nuw i8, ptr %0, i64 7
  store i8 1, ptr %17, align 1
  %18 = getelementptr inbounds nuw i8, ptr %0, i64 24
  store i8 0, ptr %18, align 8
  %19 = getelementptr inbounds nuw i8, ptr %0, i64 48
  store i8 0, ptr %19, align 8
  %20 = getelementptr inbounds nuw i8, ptr %0, i64 84
  store i8 0, ptr %20, align 4
  %21 = getelementptr inbounds nuw i8, ptr %0, i64 88
  %22 = getelementptr inbounds nuw i8, ptr %0, i64 104
  tail call void @_ZN4llvm15SmallVectorBaseIjEC2EPvm(ptr noundef nonnull align 8 dereferenceable(72) %21, ptr noundef nonnull %22, i64 noundef 1) #26
  %spec.select = select i1 %4, i64 2, i64 0
  %23 = or disjoint i64 %spec.select, 4
  %spec.select6 = select i1 %5, i64 %23, i64 %spec.select
  %24 = or disjoint i64 %spec.select6, 8
  %spec.select7 = select i1 %6, i64 %24, i64 %spec.select6
  %25 = or disjoint i64 %spec.select7, 16
  %storemerge = select i1 %7, i64 %25, i64 %spec.select7
  %26 = getelementptr inbounds nuw i8, ptr %0, i64 160
  store i64 %storemerge, ptr %26, align 8
  ret void
}